target datalayout = "e-m:e-p270:32:32-p271:32:32-p272:64:64-i64:64-i128:128-f80:128-n8:16:32:64-S128"
target triple = "x86_64-pc-linux-gnu"

%struct.FT_Module_Class_ = type { i64, i64, ptr, i64, i64, ptr, ptr, ptr, ptr }
%struct.FT_RendererRec_ = type { %struct.FT_ModuleRec_, ptr, i32, %struct.FT_Glyph_Class_, ptr, ptr, ptr }
%struct.FT_ModuleRec_ = type { ptr, ptr, ptr }
%struct.FT_Glyph_Class_ = type { i64, i32, ptr, ptr, ptr, ptr, ptr, ptr }
%struct.FT_Renderer_Class_ = type { %struct.FT_Module_Class_, i32, ptr, ptr, ptr, ptr, ptr }
%struct.FT_Raster_Funcs_ = type { i32, ptr, ptr, ptr, ptr, ptr }

; Function Attrs: nounwind uwtable
define internal i32 @ft_raster1_init(ptr noundef %0) #0 {
  %2 = alloca ptr, align 8
  %3 = alloca ptr, align 8
  store ptr %0, ptr %2, align 8, !tbaa !60
  call void @llvm.lifetime.start.p0(i64 8, ptr %3) #5
  %4 = load ptr, ptr %2, align 8, !tbaa !60
  store ptr %4, ptr %3, align 8, !tbaa !62
  %5 = load ptr, ptr %3, align 8, !tbaa !62
  %6 = getelementptr inbounds nuw %struct.FT_RendererRec_, ptr %5, i32 0, i32 1
  %7 = load ptr, ptr %6, align 8, !tbaa !64
  %8 = getelementptr inbounds nuw %struct.FT_Renderer_Class_, ptr %7, i32 0, i32 6
  %9 = load ptr, ptr %8, align 8, !tbaa !71
  %10 = getelementptr inbounds nuw %struct.FT_Raster_Funcs_, ptr %9, i32 0, i32 2
  %11 = load ptr, ptr %10, align 8, !tbaa !75
  %12 = load ptr, ptr %3, align 8, !tbaa !62
  %13 = getelementptr inbounds nuw %struct.FT_RendererRec_, ptr %12, i32 0, i32 4
  %14 = load ptr, ptr %13, align 8, !tbaa !77
  call void %11(ptr noundef %14, ptr noundef null, i64 noundef 0)
  call void @llvm.lifetime.end.p0(i64 8, ptr %3) #5
  ret i32 0
}